target datalayout = "e-m:e-p270:32:32-p271:32:32-p272:64:64-i64:64-i128:128-f80:128-n8:16:32:64-S128"
target triple = "x86_64-pc-linux-gnu"

%struct.hdr_iter = type { ptr, i32, i64, i64, i64, i64, i64, i64, i64, i64, i64, %union.anon, ptr }
%union.anon = type { %struct.hdr_iter_linear }
%struct.hdr_iter_linear = type { i64, i64, i64, i64 }
%struct.hdr_histogram = type { i64, i64, i32, i32, i32, i32, i64, i32, i32, i64, i64, i32, double, i32, i64, ptr }

@.str.43 = private unnamed_addr constant [6 x i8] c"calls\00", align 1
@.str.44 = private unnamed_addr constant [15 x i8] c"histogram_usec\00", align 1

; Function Attrs: nounwind uwtable
define dso_local void @fillCommandCDF(ptr noundef %0, ptr noundef %1) #0 {
  %3 = alloca ptr, align 8
  %4 = alloca ptr, align 8
  %5 = alloca ptr, align 8
  %6 = alloca i32, align 4
  %7 = alloca %struct.hdr_iter, align 8
  %8 = alloca i64, align 8
  %9 = alloca i64, align 8
  %10 = alloca i64, align 8
  store ptr %0, ptr %3, align 8, !tbaa !77
  store ptr %1, ptr %4, align 8, !tbaa !78
  %11 = load ptr, ptr %3, align 8, !tbaa !77
  call void @addReplyMapLen(ptr noundef %11, i64 noundef 2)
  %12 = load ptr, ptr %3, align 8, !tbaa !77
  call void @addReplyBulkCString(ptr noundef %12, ptr noundef @.str.43)
  %13 = load ptr, ptr %3, align 8, !tbaa !77
  %14 = load ptr, ptr %4, align 8, !tbaa !78
  %15 = getelementptr inbounds nuw %struct.hdr_histogram, ptr %14, i32 0, i32 14
  %16 = load i64, ptr %15, align 8, !tbaa !80
  call void @addReplyLongLong(ptr noundef %13, i64 noundef %16)
  %17 = load ptr, ptr %3, align 8, !tbaa !77
  call void @addReplyBulkCString(ptr noundef %17, ptr noundef @.str.44)
  call void @llvm.lifetime.start.p0(i64 8, ptr %5) #10
  %18 = load ptr, ptr %3, align 8, !tbaa !77
  %19 = call ptr @addReplyDeferredLen(ptr noundef %18)
  store ptr %19, ptr %5, align 8, !tbaa !10
  call void @llvm.lifetime.start.p0(i64 4, ptr %6) #10
  store i32 0, ptr %6, align 4, !tbaa !48
  call void @llvm.lifetime.start.p0(i64 128, ptr %7) #10
  %20 = load ptr, ptr %4, align 8, !tbaa !78
  call void @hdr_iter_log_init(ptr noundef %7, ptr noundef %20, i64 noundef 1024, double noundef 2.000000e+00)
  call void @llvm.lifetime.start.p0(i64 8, ptr %8) #10
  store i64 0, ptr %8, align 8, !tbaa !44
  br label %21

21:                                               ; preds = %39, %2
  %22 = call zeroext i1 @hdr_iter_next(ptr noundef %7)
  br i1 %22, label %23, label %41

23:                                               ; preds = %21
  call void @llvm.lifetime.start.p0(i64 8, ptr %9) #10
  %24 = getelementptr inbounds nuw %struct.hdr_iter, ptr %7, i32 0, i32 6
  %25 = load i64, ptr %24, align 8, !tbaa !83
  %26 = sdiv i64 %25, 1000
  store i64 %26, ptr %9, align 8, !tbaa !44
  call void @llvm.lifetime.start.p0(i64 8, ptr %10) #10
  %27 = getelementptr inbounds nuw %struct.hdr_iter, ptr %7, i32 0, i32 4
  %28 = load i64, ptr %27, align 8, !tbaa !85
  store i64 %28, ptr %10, align 8, !tbaa !44
  %29 = load i64, ptr %10, align 8, !tbaa !44
  %30 = load i64, ptr %8, align 8, !tbaa !44
  %31 = icmp sgt i64 %29, %30
  br i1 %31, label %32, label %39

32:                                               ; preds = %23
  %33 = load ptr, ptr %3, align 8, !tbaa !77
  %34 = load i64, ptr %9, align 8, !tbaa !44
  call void @addReplyLongLong(ptr noundef %33, i64 noundef %34)
  %35 = load ptr, ptr %3, align 8, !tbaa !77
  %36 = load i64, ptr %10, align 8, !tbaa !44
  call void @addReplyLongLong(ptr noundef %35, i64 noundef %36)
  %37 = load i32, ptr %6, align 4, !tbaa !48
  %38 = add nsw i32 %37, 1
  store i32 %38, ptr %6, align 4, !tbaa !48
  br label %39

39:                                               ; preds = %32, %23
  %40 = load i64, ptr %10, align 8, !tbaa !44
  store i64 %40, ptr %8, align 8, !tbaa !44
  call void @llvm.lifetime.end.p0(i64 8, ptr %10) #10
  call void @llvm.lifetime.end.p0(i64 8, ptr %9) #10
  br label %21, !llvm.loop !86

41:                                               ; preds = %21
  %42 = load ptr, ptr %3, align 8, !tbaa !77
  %43 = load ptr, ptr %5, align 8, !tbaa !10
  %44 = load i32, ptr %6, align 4, !tbaa !48
  %45 = sext i32 %44 to i64
  call void @setDeferredMapLen(ptr noundef %42, ptr noundef %43, i64 noundef %45)
  call void @llvm.lifetime.end.p0(i64 8, ptr %8) #10
  call void @llvm.lifetime.end.p0(i64 128, ptr %7) #10
  call void @llvm.lifetime.end.p0(i64 4, ptr %6) #10
  call void @llvm.lifetime.end.p0(i64 8, ptr %5) #10
  ret void
}