; Function Attrs: nounwind uwtable
define dso_local void @fillCommandCDF(ptr noundef %0, ptr noundef %1) local_unnamed_addr #2 {
  %3 = alloca %struct.hdr_iter, align 8
  tail call void @addReplyMapLen(ptr noundef %0, i64 noundef 2) #14
  tail call void @addReplyBulkCString(ptr noundef %0, ptr noundef nonnull @.str.43) #14
  %4 = getelementptr inbounds nuw i8, ptr %1, i64 88
  %5 = load i64, ptr %4, align 8, !tbaa !61
  tail call void @addReplyLongLong(ptr noundef %0, i64 noundef %5) #14
  tail call void @addReplyBulkCString(ptr noundef %0, ptr noundef nonnull @.str.44) #14
  %6 = tail call ptr @addReplyDeferredLen(ptr noundef %0) #14
  call void @llvm.lifetime.start.p0(i64 128, ptr nonnull %3) #14
  call void @hdr_iter_log_init(ptr noundef nonnull %3, ptr noundef %1, i64 noundef 1024, double noundef 2.000000e+00) #14
  %7 = call zeroext i1 @hdr_iter_next(ptr noundef nonnull %3) #14
  br i1 %7, label %.lr.ph, label %._crit_edge

.lr.ph:                                           ; preds = %2
  %8 = getelementptr inbounds nuw i8, ptr %3, i64 32
  %9 = getelementptr inbounds nuw i8, ptr %3, i64 48
  br label %10

10:                                               ; preds = %.lr.ph, %17
  %.020 = phi i32 [ 0, %.lr.ph ], [ %.1, %17 ]
  %.01719 = phi i64 [ 0, %.lr.ph ], [ %11, %17 ]
  %11 = load i64, ptr %8, align 8, !tbaa !64
  %12 = icmp sgt i64 %11, %.01719
  br i1 %12, label %13, label %17

13:                                               ; preds = %10
  %14 = load i64, ptr %9, align 8, !tbaa !67
  %15 = sdiv i64 %14, 1000
  call void @addReplyLongLong(ptr noundef %0, i64 noundef %15) #14
  call void @addReplyLongLong(ptr noundef %0, i64 noundef %11) #14
  %16 = add nsw i32 %.020, 1
  br label %17

17:                                               ; preds = %13, %10
  %.1 = phi i32 [ %16, %13 ], [ %.020, %10 ]
  %18 = call zeroext i1 @hdr_iter_next(ptr noundef nonnull %3) #14
  br i1 %18, label %10, label %._crit_edge.loopexit, !llvm.loop !68

._crit_edge.loopexit:                             ; preds = %17
  %19 = sext i32 %.1 to i64
  br label %._crit_edge

._crit_edge:                                      ; preds = %._crit_edge.loopexit, %2
  %.0.lcssa = phi i64 [ 0, %2 ], [ %19, %._crit_edge.loopexit ]
  call void @setDeferredMapLen(ptr noundef %0, ptr noundef %6, i64 noundef %.0.lcssa) #14
  call void @llvm.lifetime.end.p0(i64 128, ptr nonnull %3) #14
  ret void
}